target datalayout = "e-m:e-p270:32:32-p271:32:32-p272:64:64-i64:64-i128:128-f80:128-n8:16:32:64-S128"
target triple = "x86_64-pc-linux-gnu"

%class.Sample = type { ptr, ptr, ptr, ptr, ptr, i8, float, float, float, float, float, float, float, float, float, float, float, float, float, i32, i8, i8, i8, ptr, [9 x ptr], ptr, %class.SampleDebugDraw }
%class.SampleDebugDraw = type { %class.DebugDrawGL }
%class.DebugDrawGL = type { %struct.duDebugDraw }
%struct.duDebugDraw = type { ptr }
%class.CrowdTool = type <{ %struct.SampleTool, ptr, ptr, i32, [4 x i8] }>
%struct.SampleTool = type { ptr }

@_ZN14CrowdToolStateC1Ev = dso_local unnamed_addr alias void (ptr), ptr @_ZN14CrowdToolStateC2Ev

; Function Attrs: mustprogress nounwind uwtable
define linkonce_odr dso_local void @_ZN6Sample12setToolStateEiP15SampleToolState(ptr noundef nonnull align 8 dereferenceable(200) %0, i32 noundef %1, ptr noundef %2) #1 comdat align 2 {
  %4 = alloca ptr, align 8
  %5 = alloca i32, align 4
  %6 = alloca ptr, align 8
  store ptr %0, ptr %4, align 8
  store i32 %1, ptr %5, align 4
  store ptr %2, ptr %6, align 8
  %7 = load ptr, ptr %4, align 8
  %8 = load ptr, ptr %6, align 8
  %9 = getelementptr inbounds %class.Sample, ptr %7, i32 0, i32 24
  %10 = load i32, ptr %5, align 4
  %11 = sext i32 %10 to i64
  %12 = getelementptr inbounds [9 x ptr], ptr %9, i64 0, i64 %11
  store ptr %8, ptr %12, align 8
  ret void
}

; Function Attrs: mustprogress nounwind uwtable
define linkonce_odr dso_local noundef ptr @_ZN6Sample12getToolStateEi(ptr noundef nonnull align 8 dereferenceable(200) %0, i32 noundef %1) #1 comdat align 2 {
  %3 = alloca ptr, align 8
  %4 = alloca i32, align 4
  store ptr %0, ptr %3, align 8
  store i32 %1, ptr %4, align 4
  %5 = load ptr, ptr %3, align 8
  %6 = getelementptr inbounds %class.Sample, ptr %5, i32 0, i32 24
  %7 = load i32, ptr %4, align 4
  %8 = sext i32 %7 to i64
  %9 = getelementptr inbounds [9 x ptr], ptr %6, i64 0, i64 %8
  %10 = load ptr, ptr %9, align 8
  ret ptr %10
}

; Function Attrs: mustprogress uwtable
define dso_local void @_ZN9CrowdTool4initEP6Sample(ptr noundef nonnull align 8 dereferenceable(28) %0, ptr noundef %1) unnamed_addr #0 align 2 personality ptr @__gxx_personality_v0 {
  %3 = alloca ptr, align 8
  %4 = alloca ptr, align 8
  %5 = alloca ptr, align 8
  %6 = alloca i32, align 4
  store ptr %0, ptr %3, align 8
  store ptr %1, ptr %4, align 8
  %7 = load ptr, ptr %3, align 8
  %8 = getelementptr inbounds %class.CrowdTool, ptr %7, i32 0, i32 1
  %9 = load ptr, ptr %8, align 8
  %10 = load ptr, ptr %4, align 8
  %11 = icmp ne ptr %9, %10
  br i1 %11, label %12, label %15

12:                                               ; preds = %2
  %13 = load ptr, ptr %4, align 8
  %14 = getelementptr inbounds %class.CrowdTool, ptr %7, i32 0, i32 1
  store ptr %13, ptr %14, align 8
  br label %15

15:                                               ; preds = %12, %2
  %16 = load ptr, ptr %4, align 8
  %17 = icmp ne ptr %16, null
  br i1 %17, label %19, label %18

18:                                               ; preds = %15
  br label %52

19:                                               ; preds = %15
  %20 = load ptr, ptr %4, align 8
  %21 = load ptr, ptr %7, align 8
  %22 = getelementptr inbounds ptr, ptr %21, i64 2
  %23 = load ptr, ptr %22, align 8
  %24 = call noundef i32 %23(ptr noundef nonnull align 8 dereferenceable(28) %7)
  %25 = call noundef ptr @_ZN6Sample12getToolStateEi(ptr noundef nonnull align 8 dereferenceable(200) %20, i32 noundef %24)
  %26 = getelementptr inbounds %class.CrowdTool, ptr %7, i32 0, i32 2
  store ptr %25, ptr %26, align 8
  %27 = getelementptr inbounds %class.CrowdTool, ptr %7, i32 0, i32 2
  %28 = load ptr, ptr %27, align 8
  %29 = icmp ne ptr %28, null
  br i1 %29, label %45, label %30

30:                                               ; preds = %19
  %31 = call noalias noundef nonnull ptr @_Znwm(i64 noundef 101008) #13
  invoke void @_ZN14CrowdToolStateC1Ev(ptr noundef nonnull align 8 dereferenceable(101001) %31)
          to label %32 unwind label %41

32:                                               ; preds = %30
  %33 = getelementptr inbounds %class.CrowdTool, ptr %7, i32 0, i32 2
  store ptr %31, ptr %33, align 8
  %34 = load ptr, ptr %4, align 8
  %35 = load ptr, ptr %7, align 8
  %36 = getelementptr inbounds ptr, ptr %35, i64 2
  %37 = load ptr, ptr %36, align 8
  %38 = call noundef i32 %37(ptr noundef nonnull align 8 dereferenceable(28) %7)
  %39 = getelementptr inbounds %class.CrowdTool, ptr %7, i32 0, i32 2
  %40 = load ptr, ptr %39, align 8
  call void @_ZN6Sample12setToolStateEiP15SampleToolState(ptr noundef nonnull align 8 dereferenceable(200) %34, i32 noundef %38, ptr noundef %40)
  br label %45

41:                                               ; preds = %30
  %42 = landingpad { ptr, i32 }
          cleanup
  %43 = extractvalue { ptr, i32 } %42, 0
  store ptr %43, ptr %5, align 8
  %44 = extractvalue { ptr, i32 } %42, 1
  store i32 %44, ptr %6, align 4
  call void @_ZdlPv(ptr noundef %31) #12
  br label %53

45:                                               ; preds = %32, %19
  %46 = getelementptr inbounds %class.CrowdTool, ptr %7, i32 0, i32 2
  %47 = load ptr, ptr %46, align 8
  %48 = load ptr, ptr %4, align 8
  %49 = load ptr, ptr %47, align 8
  %50 = getelementptr inbounds ptr, ptr %49, i64 2
  %51 = load ptr, ptr %50, align 8
  call void %51(ptr noundef nonnull align 8 dereferenceable(101001) %47, ptr noundef %48)
  br label %52

52:                                               ; preds = %45, %18
  ret void

53:                                               ; preds = %41
  %54 = load ptr, ptr %5, align 8
  %55 = load i32, ptr %6, align 4
  %56 = insertvalue { ptr, i32 } poison, ptr %54, 0
  %57 = insertvalue { ptr, i32 } %56, i32 %55, 1
  resume { ptr, i32 } %57
}