; Function Attrs: mustprogress uwtable
define dso_local void @_ZN9CrowdTool4initEP6Sample(ptr noundef nonnull align 8 dereferenceable(28) %0, ptr noundef %1) unnamed_addr #0 align 2 personality ptr @__gxx_personality_v0 {
  %3 = getelementptr inbounds i8, ptr %0, i64 8
  %4 = load ptr, ptr %3, align 8
  %.not = icmp eq ptr %4, %1
  br i1 %.not, label %6, label %5

5:                                                ; preds = %2
  store ptr %1, ptr %3, align 8
  br label %6

6:                                                ; preds = %5, %2
  %.not8 = icmp eq ptr %1, null
  br i1 %.not8, label %54, label %7

7:                                                ; preds = %6
  %8 = load ptr, ptr %0, align 8
  %9 = getelementptr inbounds i8, ptr %8, i64 16
  %10 = load ptr, ptr %9, align 8
  %11 = tail call noundef i32 %10(ptr noundef nonnull align 8 dereferenceable(28) %0)
  %12 = getelementptr inbounds i8, ptr %1, i64 112
  %13 = sext i32 %11 to i64
  %14 = getelementptr inbounds [9 x ptr], ptr %12, i64 0, i64 %13
  %15 = load ptr, ptr %14, align 8
  %16 = getelementptr inbounds i8, ptr %0, i64 16
  store ptr %15, ptr %16, align 8
  %.not9 = icmp eq ptr %15, null
  br i1 %.not9, label %17, label %49

17:                                               ; preds = %7
  %18 = tail call noalias noundef nonnull dereferenceable(101008) ptr @_Znwm(i64 noundef 101008) #19
  store ptr getelementptr inbounds ({ [9 x ptr] }, ptr @_ZTV14CrowdToolState, i64 0, i32 0, i64 2), ptr %18, align 8
  %19 = getelementptr inbounds i8, ptr %18, i64 8
  %20 = getelementptr inbounds i8, ptr %18, i64 44
  store i32 0, ptr %20, align 4
  %21 = getelementptr inbounds i8, ptr %18, i64 98912
  tail call void @llvm.memset.p0.i64(ptr noundef nonnull align 8 dereferenceable(24) %19, i8 0, i64 24, i1 false)
  invoke void @_ZN12ValueHistoryC1Ev(ptr noundef nonnull align 4 dereferenceable(1028) %21)
          to label %22 unwind label %.body

22:                                               ; preds = %17
  %23 = getelementptr inbounds i8, ptr %18, i64 99940
  invoke void @_ZN12ValueHistoryC1Ev(ptr noundef nonnull align 4 dereferenceable(1028) %23)
          to label %24 unwind label %.body

24:                                               ; preds = %22
  %25 = getelementptr inbounds i8, ptr %18, i64 101000
  store i8 1, ptr %25, align 8
  %26 = getelementptr inbounds i8, ptr %18, i64 100968
  store i8 1, ptr %26, align 8
  %27 = getelementptr inbounds i8, ptr %18, i64 100969
  %28 = getelementptr inbounds i8, ptr %18, i64 100981
  tail call void @llvm.memset.p0.i64(ptr noundef nonnull align 1 dereferenceable(12) %27, i8 0, i64 12, i1 false)
  %29 = getelementptr inbounds i8, ptr %18, i64 100988
  tail call void @llvm.memset.p0.i64(ptr noundef nonnull align 1 dereferenceable(5) %28, i8 1, i64 5, i1 false)
  store float 3.000000e+00, ptr %29, align 4
  %30 = getelementptr inbounds i8, ptr %18, i64 100992
  store i8 0, ptr %30, align 8
  %31 = getelementptr inbounds i8, ptr %18, i64 100996
  store float 2.000000e+00, ptr %31, align 4
  %32 = getelementptr inbounds i8, ptr %18, i64 96
  tail call void @llvm.memset.p0.i64(ptr noundef nonnull align 8 dereferenceable(98816) %32, i8 0, i64 98816, i1 false)
  %33 = invoke noundef ptr @_Z33dtAllocObstacleAvoidanceDebugDatav()
          to label %34 unwind label %.body

34:                                               ; preds = %24
  %35 = getelementptr inbounds i8, ptr %18, i64 88
  store ptr %33, ptr %35, align 8
  %36 = invoke noundef zeroext i1 @_ZN28dtObstacleAvoidanceDebugData4initEi(ptr noundef nonnull align 8 dereferenceable(64) %33, i32 noundef 2048)
          to label %38 unwind label %.body

.body:                                            ; preds = %34, %24, %22, %17
  %37 = landingpad { ptr, i32 }
          cleanup
  tail call void @_ZN15SampleToolStateD2Ev(ptr noundef nonnull align 8 dereferenceable(8) %18) #16
  tail call void @_ZdlPv(ptr noundef nonnull %18) #18
  resume { ptr, i32 } %37

38:                                               ; preds = %34
  %39 = getelementptr inbounds i8, ptr %18, i64 48
  tail call void @llvm.memset.p0.i64(ptr noundef nonnull align 8 dereferenceable(40) %39, i8 0, i64 32, i1 false)
  store i32 -1, ptr %39, align 8
  %40 = load ptr, ptr %35, align 8
  %41 = getelementptr inbounds i8, ptr %18, i64 80
  store ptr %40, ptr %41, align 8
  store ptr %18, ptr %16, align 8
  %42 = load ptr, ptr %0, align 8
  %43 = getelementptr inbounds i8, ptr %42, i64 16
  %44 = load ptr, ptr %43, align 8
  %45 = tail call noundef i32 %44(ptr noundef nonnull align 8 dereferenceable(28) %0)
  %46 = load ptr, ptr %16, align 8
  %47 = sext i32 %45 to i64
  %48 = getelementptr inbounds [9 x ptr], ptr %12, i64 0, i64 %47
  store ptr %46, ptr %48, align 8
  br label %49

49:                                               ; preds = %38, %7
  %50 = phi ptr [ %46, %38 ], [ %15, %7 ]
  %51 = load ptr, ptr %50, align 8
  %52 = getelementptr inbounds i8, ptr %51, i64 16
  %53 = load ptr, ptr %52, align 8
  tail call void %53(ptr noundef nonnull align 8 dereferenceable(101001) %50, ptr noundef nonnull %1)
  br label %54

54:                                               ; preds = %6, %49
  ret void
}